Certificate:
    Data:
        Version: 3 (0x2)
        Serial Number: 1 (0x1)
    Signature Algorithm: sha256WithRSAEncryption
        Issuer: CN=QUIC Server Root CA
        Validity
            Not Before: Mar 16 20:04:31 2018 GMT
            Not After : Mar 19 20:04:31 2018 GMT
        Subject: C=US, ST=California, L=Mountain View, O=QUIC Server, CN=127.0.0.1
        Subject Public Key Info:
            Public Key Algorithm: rsaEncryption
                Public-Key: (2048 bit)
                Modulus:
                    00:b1:21:cb:6e:32:5c:d8:e6:ef:82:05:d7:15:97:
                    66:93:e6:5a:9a:59:3b:cb:40:b6:c9:94:23:e9:61:
                    d7:45:e7:40:04:fd:b9:73:c3:45:3b:69:a7:d2:c3:
                    81:4e:ea:22:47:e9:c0:0e:ab:82:27:d9:a6:85:be:
                    d1:ea:71:3c:51:af:d3:6d:2a:27:d6:56:ff:d8:0f:
                    31:e9:a5:82:f5:74:05:72:37:0f:1a:53:4c:c3:69:
                    a1:6f:11:b3:51:2e:fc:5d:d8:79:75:97:7f:5d:60:
                    a1:bc:98:f1:25:3c:6c:9e:4b:1d:ae:ec:70:59:31:
                    a6:09:96:f6:ef:99:17:5f:60:35:4e:ea:2c:00:e9:
                    16:73:2c:5f:d4:e8:58:78:ad:81:96:7c:a3:de:c9:
                    9e:d4:c9:9a:79:65:1d:61:d7:a1:91:75:b5:3f:16:
                    51:39:92:26:19:57:39:b8:36:fa:e3:2f:33:d7:48:
                    ec:86:64:8a:c3:3b:b6:69:94:d1:2c:79:77:bd:b6:
                    d2:78:25:e6:cb:e9:b2:15:e0:81:c9:53:2b:79:a9:
                    52:a5:e6:fb:40:39:ec:b9:57:fe:d1:9b:88:f1:86:
                    e0:7d:bf:23:d8:51:bc:75:01:24:2d:24:19:74:d8:
                    95:47:da:96:75:45:1b:58:fc:13:a7:de:0e:23:4e:
                    75:cb
                Exponent: 65537 (0x10001)
        X509v3 extensions:
            X509v3 Basic Constraints: critical
                CA:FALSE
            X509v3 Subject Key Identifier: 
                2C:17:C7:7C:C2:2E:C6:93:C9:0B:BC:72:41:40:85:66:62:68:10:31
            X509v3 Authority Key Identifier: 
                keyid:CC:8D:87:23:7B:C4:85:24:87:11:1F:5F:6F:D4:6C:8D:2E:54:73:0C

            X509v3 Extended Key Usage: 
                TLS Web Server Authentication, TLS Web Client Authentication
            X509v3 Subject Alternative Name: 
                DNS:www.example.org, DNS:mail.example.org, DNS:mail.example.com, IP Address:127.0.0.1
    Signature Algorithm: sha256WithRSAEncryption
         d3:ec:d1:18:b3:8f:8a:e5:0c:19:ff:ff:51:74:d8:c4:40:60:
         59:d5:7f:50:d2:d4:fb:39:a8:7c:98:11:0f:59:0f:27:bf:e7:
         4b:a7:f9:64:21:36:d2:83:e7:03:25:7e:b7:76:69:20:bd:ad:
         98:6a:0b:cd:fe:66:23:14:cd:07:88:00:b7:14:59:02:da:88:
         b6:a8:2e:8c:62:c0:b4:ef:f4:4b:d5:65:73:84:04:9c:8c:b5:
         6a:12:d9:35:23:94:9f:ae:90:b5:a7:e1:a5:1a:8c:6e:95:8d:
         d1:a2:ff:73:70:42:94:e9:e0:8f:ee:15:d4:5a:07:f6:43:ac:
         d7:12:b4:6d:aa:85:14:19:c6:2c:f7:ea:5d:a4:17:2a:51:5a:
         78:fb:21:eb:0c:8b:81:66:d3:a6:3e:d2:7f:1d:e5:7a:f5:3e:
         63:a9:3b:a3:09:84:2b:cc:97:ee:aa:8b:81:49:ea:fe:b0:8a:
         94:f2:de:d5:97:dd:38:97:9f:17:72:1c:ef:98:ee:55:cd:bd:
         3b:41:78:2d:ba:66:e9:b6:6b:9d:01:69:e8:79:4a:52:b7:cd:
         aa:97:ec:cb:2c:fa:3e:77:90:69:7b:b2:7b:c5:ac:e9:a8:66:
         c6:68:57:49:b4:72:4e:1a:38:e0:c3:f0:09:f1:96:28:fa:16:
         4d:8f:3e:79
-----BEGIN CERTIFICATE-----
MIIDtDCCApygAwIBAgIBATANBgkqhkiG9w0BAQsFADAeMRwwGgYDVQQDDBNRVUlD
IFNlcnZlciBSb290IENBMB4XDTE4MDMxNjIwMDQzMVoXDTE4MDMxOTIwMDQzMVow
ZDELMAkGA1UEBhMCVVMxEzARBgNVBAgMCkNhbGlmb3JuaWExFjAUBgNVBAcMDU1v
dW50YWluIFZpZXcxFDASBgNVBAoMC1FVSUMgU2VydmVyMRIwEAYDVQQDDAkxMjcu
MC4wLjEwggEiMA0GCSqGSIb3DQEBAQUAA4IBDwAwggEKAoIBAQCxIctuMlzY5u+C
BdcVl2aT5lqaWTvLQLbJlCPpYddF50AE/blzw0U7aafSw4FO6iJH6cAOq4In2aaF
vtHqcTxRr9NtKifWVv/YDzHppYL1dAVyNw8aU0zDaaFvEbNRLvxd2Hl1l39dYKG8
mPElPGyeSx2u7HBZMaYJlvbvmRdfYDVO6iwA6RZzLF/U6Fh4rYGWfKPeyZ7UyZp5
ZR1h16GRdbU/FlE5kiYZVzm4NvrjLzPXSOyGZIrDO7ZplNEseXe9ttJ4JebL6bIV
4IHJUyt5qVKl5vtAOey5V/7Rm4jxhuB9vyPYUbx1ASQtJBl02JVH2pZ1RRtY/BOn
3g4jTnXLAgMBAAGjgbYwgbMwDAYDVR0TAQH/BAIwADAdBgNVHQ4EFgQULBfHfMIu
xpPJC7xyQUCFZmJoEDEwHwYDVR0jBBgwFoAUzI2HI3vEhSSHER9fb9RsjS5Ucwww
HQYDVR0lBBYwFAYIKwYBBQUHAwEGCCsGAQUFBwMCMEQGA1UdEQQ9MDuCD3d3dy5l
eGFtcGxlLm9yZ4IQbWFpbC5leGFtcGxlLm9yZ4IQbWFpbC5leGFtcGxlLmNvbYcE
fwAAATANBgkqhkiG9w0BAQsFAAOCAQEA0+zRGLOPiuUMGf//UXTYxEBgWdV/UNLU
+zmofJgRD1kPJ7/nS6f5ZCE20oPnAyV+t3ZpIL2tmGoLzf5mIxTNB4gAtxRZAtqI
tqgujGLAtO/0S9Vlc4QEnIy1ahLZNSOUn66QtafhpRqMbpWN0aL/c3BClOngj+4V
1FoH9kOs1xK0baqFFBnGLPfqXaQXKlFaePsh6wyLgWbTpj7Sfx3levU+Y6k7owmE
K8yX7qqLgUnq/rCKlPLe1ZfdOJefF3Ic75juVc29O0F4Lbpm6bZrnQFp6HlKUrfN
qpfsyyz6PneQaXuye8Ws6ahmxmhXSbRyTho44MPwCfGWKPoWTY8+eQ==
-----END CERTIFICATE-----
